; Function Attrs: nounwind uwtable
define noalias noundef ptr @gatherMonotoneSignals(ptr noundef %0) local_unnamed_addr #0 {
  %2 = getelementptr inbounds nuw i8, ptr %0, i64 32
  %3 = load ptr, ptr %2, align 8
  %4 = getelementptr i8, ptr %3, i64 4
  %.val11 = load i32, ptr %4, align 4
  %5 = icmp sgt i32 %.val11, 0
  br i1 %5, label %.lr.ph, label %.critedge

.lr.ph:                                           ; preds = %1, %17
  %6 = phi ptr [ %18, %17 ], [ %3, %1 ]
  %indvars.iv = phi i64 [ %indvars.iv.next, %17 ], [ 0, %1 ]
  %7 = getelementptr i8, ptr %6, i64 8
  %.val9 = load ptr, ptr %7, align 8
  %8 = getelementptr inbounds nuw ptr, ptr %.val9, i64 %indvars.iv
  %9 = load ptr, ptr %8, align 8
  %10 = icmp eq ptr %9, null
  br i1 %10, label %17, label %11

11:                                               ; preds = %.lr.ph
  %12 = getelementptr i8, ptr %9, i64 24
  %.val10 = load i64, ptr %12, align 8
  %13 = trunc i64 %.val10 to i32
  %14 = and i32 %13, 7
  %15 = add nsw i32 %14, -7
  %narrow.i = icmp ult i32 %15, -2
  br i1 %narrow.i, label %17, label %16

16:                                               ; preds = %11
  tail call void @Aig_ObjPrint(ptr noundef nonnull %0, ptr noundef nonnull %9) #9
  %putchar = tail call i32 @putchar(i32 10)
  %.pre = load ptr, ptr %2, align 8
  br label %17

17:                                               ; preds = %16, %11, %.lr.ph
  %18 = phi ptr [ %.pre, %16 ], [ %6, %11 ], [ %6, %.lr.ph ]
  %indvars.iv.next = add nuw nsw i64 %indvars.iv, 1
  %19 = getelementptr i8, ptr %18, i64 4
  %.val = load i32, ptr %19, align 4
  %20 = sext i32 %.val to i64
  %21 = icmp slt i64 %indvars.iv.next, %20
  br i1 %21, label %.lr.ph, label %.critedge, !llvm.loop !12

.critedge:                                        ; preds = %17, %1
  ret ptr null
}